target datalayout = "e-m:e-p270:32:32-p271:32:32-p272:64:64-i64:64-i128:128-f80:128-n8:16:32:64-S128"
target triple = "x86_64-pc-linux-gnu"

%struct.conn = type { i32, ptr, ptr }
%union.anon.0 = type { %union.protocol_binary_request_no_extras, [1000 x i8] }
%union.protocol_binary_request_no_extras = type { %struct.anon }
%struct.anon = type { %union.protocol_binary_request_header }
%union.protocol_binary_request_header = type { %struct.anon.1 }
%struct.anon.1 = type { i8, i8, i16, i8, i8, i16, i32, i32, i64 }
%struct.anon.2 = type { %union.protocol_binary_response_header }
%union.protocol_binary_response_header = type { %struct.anon.3 }
%struct.anon.3 = type { i8, i8, i16, i8, i8, i16, i32, i32, i64 }

@.str.62 = private unnamed_addr constant [10 x i8] c"testapp.c\00", align 1
@stderr = external global ptr, align 8
@con = internal global ptr null, align 8
@.str.238 = private unnamed_addr constant [21 x i8] c"Failed to write: %s\0A\00", align 1
@.str.248 = private unnamed_addr constant [52 x i8] c"bufsz > sizeof(*request) + extlen + keylen + dtalen\00", align 1
@__PRETTY_FUNCTION__.ext_command = private unnamed_addr constant [109 x i8] c"off_t ext_command(char *, size_t, uint8_t, const void *, size_t, const void *, size_t, const void *, size_t)\00", align 1
@.str.249 = private unnamed_addr constant [25 x i8] c"size > sizeof(*response)\00", align 1
@__PRETTY_FUNCTION__.safe_recv_packet = private unnamed_addr constant [39 x i8] c"_Bool safe_recv_packet(void *, size_t)\00", align 1

; Function Attrs: inlinehint nounwind uwtable
define internal i32 @__bswap_32(i32 noundef %0) #9 {
  %2 = alloca i32, align 4
  store i32 %0, ptr %2, align 4, !tbaa !10
  %3 = load i32, ptr %2, align 4, !tbaa !10
  %4 = and i32 %3, -16777216
  %5 = lshr i32 %4, 24
  %6 = load i32, ptr %2, align 4, !tbaa !10
  %7 = and i32 %6, 16711680
  %8 = lshr i32 %7, 8
  %9 = or i32 %5, %8
  %10 = load i32, ptr %2, align 4, !tbaa !10
  %11 = and i32 %10, 65280
  %12 = shl i32 %11, 8
  %13 = or i32 %9, %12
  %14 = load i32, ptr %2, align 4, !tbaa !10
  %15 = and i32 %14, 255
  %16 = shl i32 %15, 24
  %17 = or i32 %13, %16
  ret i32 %17
}

; Function Attrs: inlinehint nounwind uwtable
define internal zeroext i16 @__bswap_16(i16 noundef zeroext %0) #9 {
  %2 = alloca i16, align 2
  store i16 %0, ptr %2, align 2, !tbaa !41
  %3 = load i16, ptr %2, align 2, !tbaa !41
  %4 = zext i16 %3 to i32
  %5 = ashr i32 %4, 8
  %6 = and i32 %5, 255
  %7 = load i16, ptr %2, align 2, !tbaa !41
  %8 = zext i16 %7 to i32
  %9 = and i32 %8, 255
  %10 = shl i32 %9, 8
  %11 = or i32 %6, %10
  %12 = trunc i32 %11 to i16
  ret i16 %12
}

; Function Attrs: nounwind uwtable
define internal i64 @ext_command(ptr noundef %0, i64 noundef %1, i8 noundef zeroext %2, ptr noundef %3, i64 noundef %4, ptr noundef %5, i64 noundef %6, ptr noundef %7, i64 noundef %8) #0 {
  %10 = alloca ptr, align 8
  %11 = alloca i64, align 8
  %12 = alloca i8, align 1
  %13 = alloca ptr, align 8
  %14 = alloca i64, align 8
  %15 = alloca ptr, align 8
  %16 = alloca i64, align 8
  %17 = alloca ptr, align 8
  %18 = alloca i64, align 8
  %19 = alloca ptr, align 8
  %20 = alloca i64, align 8
  %21 = alloca i64, align 8
  %22 = alloca i64, align 8
  store ptr %0, ptr %10, align 8, !tbaa !8
  store i64 %1, ptr %11, align 8, !tbaa !36
  store i8 %2, ptr %12, align 1, !tbaa !14
  store ptr %3, ptr %13, align 8, !tbaa !4
  store i64 %4, ptr %14, align 8, !tbaa !36
  store ptr %5, ptr %15, align 8, !tbaa !4
  store i64 %6, ptr %16, align 8, !tbaa !36
  store ptr %7, ptr %17, align 8, !tbaa !4
  store i64 %8, ptr %18, align 8, !tbaa !36
  call void @llvm.lifetime.start.p0(i64 8, ptr %19) #12
  %23 = load ptr, ptr %10, align 8, !tbaa !8
  store ptr %23, ptr %19, align 8, !tbaa !4
  %24 = load i64, ptr %11, align 8, !tbaa !36
  %25 = load i64, ptr %14, align 8, !tbaa !36
  %26 = add i64 24, %25
  %27 = load i64, ptr %16, align 8, !tbaa !36
  %28 = add i64 %26, %27
  %29 = load i64, ptr %18, align 8, !tbaa !36
  %30 = add i64 %28, %29
  %31 = icmp ugt i64 %24, %30
  br i1 %31, label %32, label %33

32:                                               ; preds = %9
  br label %34

33:                                               ; preds = %9
  call void @__assert_fail(ptr noundef @.str.248, ptr noundef @.str.62, i32 noundef 1117, ptr noundef @__PRETTY_FUNCTION__.ext_command) #13
  unreachable

34:                                               ; preds = %32
  %35 = load ptr, ptr %19, align 8, !tbaa !4
  call void @llvm.memset.p0.i64(ptr align 8 %35, i8 0, i64 24, i1 false)
  %36 = load ptr, ptr %19, align 8, !tbaa !4
  %37 = getelementptr inbounds nuw %struct.anon, ptr %36, i32 0, i32 0
  %38 = getelementptr inbounds nuw %struct.anon.1, ptr %37, i32 0, i32 0
  store i8 -128, ptr %38, align 8, !tbaa !14
  %39 = load i8, ptr %12, align 1, !tbaa !14
  %40 = load ptr, ptr %19, align 8, !tbaa !4
  %41 = getelementptr inbounds nuw %struct.anon, ptr %40, i32 0, i32 0
  %42 = getelementptr inbounds nuw %struct.anon.1, ptr %41, i32 0, i32 1
  store i8 %39, ptr %42, align 1, !tbaa !14
  %43 = load i64, ptr %14, align 8, !tbaa !36
  %44 = trunc i64 %43 to i8
  %45 = load ptr, ptr %19, align 8, !tbaa !4
  %46 = getelementptr inbounds nuw %struct.anon, ptr %45, i32 0, i32 0
  %47 = getelementptr inbounds nuw %struct.anon.1, ptr %46, i32 0, i32 3
  store i8 %44, ptr %47, align 4, !tbaa !14
  %48 = load i64, ptr %16, align 8, !tbaa !36
  %49 = trunc i64 %48 to i16
  %50 = call zeroext i16 @__bswap_16(i16 noundef zeroext %49)
  %51 = load ptr, ptr %19, align 8, !tbaa !4
  %52 = getelementptr inbounds nuw %struct.anon, ptr %51, i32 0, i32 0
  %53 = getelementptr inbounds nuw %struct.anon.1, ptr %52, i32 0, i32 2
  store i16 %50, ptr %53, align 2, !tbaa !14
  %54 = load i64, ptr %14, align 8, !tbaa !36
  %55 = load i64, ptr %16, align 8, !tbaa !36
  %56 = add i64 %54, %55
  %57 = load i64, ptr %18, align 8, !tbaa !36
  %58 = add i64 %56, %57
  %59 = trunc i64 %58 to i32
  %60 = call i32 @__bswap_32(i32 noundef %59)
  %61 = load ptr, ptr %19, align 8, !tbaa !4
  %62 = getelementptr inbounds nuw %struct.anon, ptr %61, i32 0, i32 0
  %63 = getelementptr inbounds nuw %struct.anon.1, ptr %62, i32 0, i32 6
  store i32 %60, ptr %63, align 8, !tbaa !14
  %64 = load ptr, ptr %19, align 8, !tbaa !4
  %65 = getelementptr inbounds nuw %struct.anon, ptr %64, i32 0, i32 0
  %66 = getelementptr inbounds nuw %struct.anon.1, ptr %65, i32 0, i32 7
  store i32 -559038737, ptr %66, align 4, !tbaa !14
  call void @llvm.lifetime.start.p0(i64 8, ptr %20) #12
  store i64 24, ptr %20, align 8, !tbaa !36
  call void @llvm.lifetime.start.p0(i64 8, ptr %21) #12
  %67 = load i64, ptr %20, align 8, !tbaa !36
  %68 = load i64, ptr %14, align 8, !tbaa !36
  %69 = add i64 %67, %68
  store i64 %69, ptr %21, align 8, !tbaa !36
  call void @llvm.lifetime.start.p0(i64 8, ptr %22) #12
  %70 = load i64, ptr %21, align 8, !tbaa !36
  %71 = load i64, ptr %16, align 8, !tbaa !36
  %72 = add i64 %70, %71
  store i64 %72, ptr %22, align 8, !tbaa !36
  %73 = load ptr, ptr %13, align 8, !tbaa !4
  %74 = icmp ne ptr %73, null
  br i1 %74, label %75, label %81

75:                                               ; preds = %34
  %76 = load ptr, ptr %10, align 8, !tbaa !8
  %77 = load i64, ptr %20, align 8, !tbaa !36
  %78 = getelementptr inbounds i8, ptr %76, i64 %77
  %79 = load ptr, ptr %13, align 8, !tbaa !4
  %80 = load i64, ptr %14, align 8, !tbaa !36
  call void @llvm.memcpy.p0.p0.i64(ptr align 1 %78, ptr align 1 %79, i64 %80, i1 false)
  br label %81

81:                                               ; preds = %75, %34
  %82 = load ptr, ptr %15, align 8, !tbaa !4
  %83 = icmp ne ptr %82, null
  br i1 %83, label %84, label %90

84:                                               ; preds = %81
  %85 = load ptr, ptr %10, align 8, !tbaa !8
  %86 = load i64, ptr %21, align 8, !tbaa !36
  %87 = getelementptr inbounds i8, ptr %85, i64 %86
  %88 = load ptr, ptr %15, align 8, !tbaa !4
  %89 = load i64, ptr %16, align 8, !tbaa !36
  call void @llvm.memcpy.p0.p0.i64(ptr align 1 %87, ptr align 1 %88, i64 %89, i1 false)
  br label %90

90:                                               ; preds = %84, %81
  %91 = load ptr, ptr %17, align 8, !tbaa !4
  %92 = icmp ne ptr %91, null
  br i1 %92, label %93, label %99

93:                                               ; preds = %90
  %94 = load ptr, ptr %10, align 8, !tbaa !8
  %95 = load i64, ptr %22, align 8, !tbaa !36
  %96 = getelementptr inbounds i8, ptr %94, i64 %95
  %97 = load ptr, ptr %17, align 8, !tbaa !4
  %98 = load i64, ptr %18, align 8, !tbaa !36
  call void @llvm.memcpy.p0.p0.i64(ptr align 1 %96, ptr align 1 %97, i64 %98, i1 false)
  br label %99

99:                                               ; preds = %93, %90
  %100 = load i64, ptr %14, align 8, !tbaa !36
  %101 = add i64 24, %100
  %102 = load i64, ptr %16, align 8, !tbaa !36
  %103 = add i64 %101, %102
  %104 = load i64, ptr %18, align 8, !tbaa !36
  %105 = add i64 %103, %104
  call void @llvm.lifetime.end.p0(i64 8, ptr %22) #12
  call void @llvm.lifetime.end.p0(i64 8, ptr %21) #12
  call void @llvm.lifetime.end.p0(i64 8, ptr %20) #12
  call void @llvm.lifetime.end.p0(i64 8, ptr %19) #12
  ret i64 %105
}

; Function Attrs: nounwind uwtable
define internal zeroext i1 @safe_recv_packet(ptr noundef %0, i64 noundef %1) #0 {
  %3 = alloca i1, align 1
  %4 = alloca ptr, align 8
  %5 = alloca i64, align 8
  %6 = alloca ptr, align 8
  %7 = alloca i32, align 4
  %8 = alloca i64, align 8
  %9 = alloca ptr, align 8
  store ptr %0, ptr %4, align 8, !tbaa !4
  store i64 %1, ptr %5, align 8, !tbaa !36
  call void @llvm.lifetime.start.p0(i64 8, ptr %6) #12
  %10 = load ptr, ptr %4, align 8, !tbaa !4
  store ptr %10, ptr %6, align 8, !tbaa !4
  %11 = load i64, ptr %5, align 8, !tbaa !36
  %12 = icmp ugt i64 %11, 24
  br i1 %12, label %13, label %14

13:                                               ; preds = %2
  br label %15

14:                                               ; preds = %2
  call void @__assert_fail(ptr noundef @.str.249, ptr noundef @.str.62, i32 noundef 1039, ptr noundef @__PRETTY_FUNCTION__.safe_recv_packet) #13
  unreachable

15:                                               ; preds = %13
  %16 = load ptr, ptr %6, align 8, !tbaa !4
  %17 = call zeroext i1 @safe_recv(ptr noundef %16, i64 noundef 24)
  br i1 %17, label %19, label %18

18:                                               ; preds = %15
  store i1 false, ptr %3, align 1
  store i32 1, ptr %7, align 4
  br label %58

19:                                               ; preds = %15
  %20 = load ptr, ptr %6, align 8, !tbaa !4
  %21 = getelementptr inbounds nuw %struct.anon.2, ptr %20, i32 0, i32 0
  %22 = getelementptr inbounds nuw %struct.anon.3, ptr %21, i32 0, i32 2
  %23 = load i16, ptr %22, align 2, !tbaa !14
  %24 = call zeroext i16 @__bswap_16(i16 noundef zeroext %23)
  %25 = load ptr, ptr %6, align 8, !tbaa !4
  %26 = getelementptr inbounds nuw %struct.anon.2, ptr %25, i32 0, i32 0
  %27 = getelementptr inbounds nuw %struct.anon.3, ptr %26, i32 0, i32 2
  store i16 %24, ptr %27, align 2, !tbaa !14
  %28 = load ptr, ptr %6, align 8, !tbaa !4
  %29 = getelementptr inbounds nuw %struct.anon.2, ptr %28, i32 0, i32 0
  %30 = getelementptr inbounds nuw %struct.anon.3, ptr %29, i32 0, i32 5
  %31 = load i16, ptr %30, align 2, !tbaa !14
  %32 = call zeroext i16 @__bswap_16(i16 noundef zeroext %31)
  %33 = load ptr, ptr %6, align 8, !tbaa !4
  %34 = getelementptr inbounds nuw %struct.anon.2, ptr %33, i32 0, i32 0
  %35 = getelementptr inbounds nuw %struct.anon.3, ptr %34, i32 0, i32 5
  store i16 %32, ptr %35, align 2, !tbaa !14
  %36 = load ptr, ptr %6, align 8, !tbaa !4
  %37 = getelementptr inbounds nuw %struct.anon.2, ptr %36, i32 0, i32 0
  %38 = getelementptr inbounds nuw %struct.anon.3, ptr %37, i32 0, i32 6
  %39 = load i32, ptr %38, align 8, !tbaa !14
  %40 = call i32 @__bswap_32(i32 noundef %39)
  %41 = load ptr, ptr %6, align 8, !tbaa !4
  %42 = getelementptr inbounds nuw %struct.anon.2, ptr %41, i32 0, i32 0
  %43 = getelementptr inbounds nuw %struct.anon.3, ptr %42, i32 0, i32 6
  store i32 %40, ptr %43, align 8, !tbaa !14
  call void @llvm.lifetime.start.p0(i64 8, ptr %8) #12
  store i64 24, ptr %8, align 8, !tbaa !36
  call void @llvm.lifetime.start.p0(i64 8, ptr %9) #12
  %44 = load ptr, ptr %4, align 8, !tbaa !4
  store ptr %44, ptr %9, align 8, !tbaa !8
  %45 = load i64, ptr %8, align 8, !tbaa !36
  %46 = load ptr, ptr %9, align 8, !tbaa !8
  %47 = getelementptr inbounds nuw i8, ptr %46, i64 %45
  store ptr %47, ptr %9, align 8, !tbaa !8
  %48 = load ptr, ptr %9, align 8, !tbaa !8
  %49 = load ptr, ptr %6, align 8, !tbaa !4
  %50 = getelementptr inbounds nuw %struct.anon.2, ptr %49, i32 0, i32 0
  %51 = getelementptr inbounds nuw %struct.anon.3, ptr %50, i32 0, i32 6
  %52 = load i32, ptr %51, align 8, !tbaa !14
  %53 = zext i32 %52 to i64
  %54 = call zeroext i1 @safe_recv(ptr noundef %48, i64 noundef %53)
  br i1 %54, label %56, label %55

55:                                               ; preds = %19
  store i1 false, ptr %3, align 1
  store i32 1, ptr %7, align 4
  br label %57

56:                                               ; preds = %19
  store i1 true, ptr %3, align 1
  store i32 1, ptr %7, align 4
  br label %57

57:                                               ; preds = %56, %55
  call void @llvm.lifetime.end.p0(i64 8, ptr %9) #12
  call void @llvm.lifetime.end.p0(i64 8, ptr %8) #12
  br label %58

58:                                               ; preds = %57, %18
  call void @llvm.lifetime.end.p0(i64 8, ptr %6) #12
  %59 = load i1, ptr %3, align 1
  ret i1 %59
}

; Function Attrs: nounwind uwtable
define internal void @safe_send(ptr noundef %0, i64 noundef %1, i1 noundef zeroext %2) #0 {
  %4 = alloca ptr, align 8
  %5 = alloca i64, align 8
  %6 = alloca i8, align 1
  %7 = alloca i64, align 8
  %8 = alloca ptr, align 8
  %9 = alloca i64, align 8
  %10 = alloca i64, align 8
  store ptr %0, ptr %4, align 8, !tbaa !4
  store i64 %1, ptr %5, align 8, !tbaa !36
  %11 = zext i1 %2 to i8
  store i8 %11, ptr %6, align 1, !tbaa !31
  call void @llvm.lifetime.start.p0(i64 8, ptr %7) #12
  store i64 0, ptr %7, align 8, !tbaa !36
  call void @llvm.lifetime.start.p0(i64 8, ptr %8) #12
  %12 = load ptr, ptr %4, align 8, !tbaa !4
  store ptr %12, ptr %8, align 8, !tbaa !8
  br label %13

13:                                               ; preds = %61, %3
  call void @llvm.lifetime.start.p0(i64 8, ptr %9) #12
  %14 = load i64, ptr %5, align 8, !tbaa !36
  %15 = load i64, ptr %7, align 8, !tbaa !36
  %16 = sub i64 %14, %15
  store i64 %16, ptr %9, align 8, !tbaa !36
  %17 = load i8, ptr %6, align 1, !tbaa !31, !range !34, !noundef !35
  %18 = trunc i8 %17 to i1
  br i1 %18, label %19, label %28

19:                                               ; preds = %13
  %20 = load i64, ptr %9, align 8, !tbaa !36
  %21 = icmp ugt i64 %20, 1024
  br i1 %21, label %22, label %27

22:                                               ; preds = %19
  %23 = call i32 @rand() #12
  %24 = srem i32 %23, 1023
  %25 = add nsw i32 %24, 1
  %26 = sext i32 %25 to i64
  store i64 %26, ptr %9, align 8, !tbaa !36
  br label %27

27:                                               ; preds = %22, %19
  br label %28

28:                                               ; preds = %27, %13
  call void @llvm.lifetime.start.p0(i64 8, ptr %10) #12
  %29 = load ptr, ptr @con, align 8, !tbaa !39
  %30 = getelementptr inbounds nuw %struct.conn, ptr %29, i32 0, i32 2
  %31 = load ptr, ptr %30, align 8, !tbaa !46
  %32 = load ptr, ptr @con, align 8, !tbaa !39
  %33 = load ptr, ptr %8, align 8, !tbaa !8
  %34 = load i64, ptr %7, align 8, !tbaa !36
  %35 = getelementptr inbounds i8, ptr %33, i64 %34
  %36 = load i64, ptr %9, align 8, !tbaa !36
  %37 = call i64 %31(ptr noundef %32, ptr noundef %35, i64 noundef %36)
  store i64 %37, ptr %10, align 8, !tbaa !36
  %38 = load i64, ptr %10, align 8, !tbaa !36
  %39 = icmp eq i64 %38, -1
  br i1 %39, label %40, label %51

40:                                               ; preds = %28
  %41 = call ptr @__errno_location() #16
  %42 = load i32, ptr %41, align 4, !tbaa !10
  %43 = icmp ne i32 %42, 4
  br i1 %43, label %44, label %50

44:                                               ; preds = %40
  %45 = load ptr, ptr @stderr, align 8, !tbaa !37
  %46 = call ptr @__errno_location() #16
  %47 = load i32, ptr %46, align 4, !tbaa !10
  %48 = call ptr @strerror(i32 noundef %47) #12
  %49 = call i32 (ptr, ptr, ...) @fprintf(ptr noundef %45, ptr noundef @.str.238, ptr noundef %48) #12
  call void @abort() #13
  unreachable

50:                                               ; preds = %40
  br label %60

51:                                               ; preds = %28
  %52 = load i8, ptr %6, align 1, !tbaa !31, !range !34, !noundef !35
  %53 = trunc i8 %52 to i1
  br i1 %53, label %54, label %56

54:                                               ; preds = %51
  %55 = call i32 @usleep(i32 noundef 100)
  br label %56

56:                                               ; preds = %54, %51
  %57 = load i64, ptr %10, align 8, !tbaa !36
  %58 = load i64, ptr %7, align 8, !tbaa !36
  %59 = add nsw i64 %58, %57
  store i64 %59, ptr %7, align 8, !tbaa !36
  br label %60

60:                                               ; preds = %56, %50
  call void @llvm.lifetime.end.p0(i64 8, ptr %10) #12
  call void @llvm.lifetime.end.p0(i64 8, ptr %9) #12
  br label %61

61:                                               ; preds = %60
  %62 = load i64, ptr %7, align 8, !tbaa !36
  %63 = load i64, ptr %5, align 8, !tbaa !36
  %64 = icmp ult i64 %62, %63
  br i1 %64, label %13, label %65, !llvm.loop !81

65:                                               ; preds = %61
  call void @llvm.lifetime.end.p0(i64 8, ptr %8) #12
  call void @llvm.lifetime.end.p0(i64 8, ptr %7) #12
  ret void
}

; Function Attrs: nounwind uwtable
define internal i64 @raw_command(ptr noundef %0, i64 noundef %1, i8 noundef zeroext %2, ptr noundef %3, i64 noundef %4, ptr noundef %5, i64 noundef %6) #0 {
  %8 = alloca ptr, align 8
  %9 = alloca i64, align 8
  %10 = alloca i8, align 1
  %11 = alloca ptr, align 8
  %12 = alloca i64, align 8
  %13 = alloca ptr, align 8
  %14 = alloca i64, align 8
  store ptr %0, ptr %8, align 8, !tbaa !8
  store i64 %1, ptr %9, align 8, !tbaa !36
  store i8 %2, ptr %10, align 1, !tbaa !14
  store ptr %3, ptr %11, align 8, !tbaa !4
  store i64 %4, ptr %12, align 8, !tbaa !36
  store ptr %5, ptr %13, align 8, !tbaa !4
  store i64 %6, ptr %14, align 8, !tbaa !36
  %15 = load ptr, ptr %8, align 8, !tbaa !8
  %16 = load i64, ptr %9, align 8, !tbaa !36
  %17 = load i8, ptr %10, align 1, !tbaa !14
  %18 = load ptr, ptr %11, align 8, !tbaa !4
  %19 = load i64, ptr %12, align 8, !tbaa !36
  %20 = load ptr, ptr %13, align 8, !tbaa !4
  %21 = load i64, ptr %14, align 8, !tbaa !36
  %22 = call i64 @ext_command(ptr noundef %15, i64 noundef %16, i8 noundef zeroext %17, ptr noundef null, i64 noundef 0, ptr noundef %18, i64 noundef %19, ptr noundef %20, i64 noundef %21)
  ret i64 %22
}

; Function Attrs: nounwind uwtable
define internal i32 @test_binary_noop() #0 {
  %1 = alloca %union.anon.0, align 8
  %2 = alloca i64, align 8
  call void @llvm.lifetime.start.p0(i64 1024, ptr %1) #12
  call void @llvm.lifetime.start.p0(i64 8, ptr %2) #12
  %3 = getelementptr inbounds [1024 x i8], ptr %1, i64 0, i64 0
  %4 = call i64 @raw_command(ptr noundef %3, i64 noundef 1024, i8 noundef zeroext 10, ptr noundef null, i64 noundef 0, ptr noundef null, i64 noundef 0)
  store i64 %4, ptr %2, align 8, !tbaa !36
  %5 = getelementptr inbounds [1024 x i8], ptr %1, i64 0, i64 0
  %6 = load i64, ptr %2, align 8, !tbaa !36
  call void @safe_send(ptr noundef %5, i64 noundef %6, i1 noundef zeroext false)
  %7 = getelementptr inbounds [1024 x i8], ptr %1, i64 0, i64 0
  %8 = call zeroext i1 @safe_recv_packet(ptr noundef %7, i64 noundef 1024)
  call void @validate_response_header(ptr noundef %1, i8 noundef zeroext 10, i16 noundef zeroext 0)
  call void @llvm.lifetime.end.p0(i64 8, ptr %2) #12
  call void @llvm.lifetime.end.p0(i64 1024, ptr %1) #12
  ret i32 1
}